target datalayout = "e-m:e-p270:32:32-p271:32:32-p272:64:64-i64:64-i128:128-f80:128-n8:16:32:64-S128"
target triple = "x86_64-pc-linux-gnu"

%"class.std::__cxx11::basic_string" = type { %"struct.std::__cxx11::basic_string<char>::_Alloc_hider", i64, %union.anon }
%"struct.std::__cxx11::basic_string<char>::_Alloc_hider" = type { ptr }
%union.anon = type { i64, [8 x i8] }

; Function Attrs: mustprogress nounwind uwtable
define available_externally noundef ptr @_ZNKSt7__cxx1112basic_stringIcSt11char_traitsIcESaIcEE7_M_dataEv(ptr noundef nonnull align 8 dereferenceable(32) %0) #6 align 2 {
  %2 = alloca ptr, align 8
  store ptr %0, ptr %2, align 8, !tbaa !52
  %3 = load ptr, ptr %2, align 8
  %4 = getelementptr inbounds nuw %"class.std::__cxx11::basic_string", ptr %3, i32 0, i32 0
  %5 = getelementptr inbounds nuw %"struct.std::__cxx11::basic_string<char>::_Alloc_hider", ptr %4, i32 0, i32 0
  %6 = load ptr, ptr %5, align 8, !tbaa !373
  ret ptr %6
}

; Function Attrs: mustprogress nounwind uwtable
define available_externally noundef i64 @_ZNKSt7__cxx1112basic_stringIcSt11char_traitsIcESaIcEE4sizeEv(ptr noundef nonnull align 8 dereferenceable(32) %0) #6 align 2 {
  %2 = alloca ptr, align 8
  store ptr %0, ptr %2, align 8, !tbaa !52
  %3 = load ptr, ptr %2, align 8
  %4 = getelementptr inbounds nuw %"class.std::__cxx11::basic_string", ptr %3, i32 0, i32 1
  %5 = load i64, ptr %4, align 8, !tbaa !59
  ret i64 %5
}

; Function Attrs: mustprogress nounwind uwtable
define available_externally noundef nonnull align 1 dereferenceable(1) ptr @_ZNKSt7__cxx1112basic_stringIcSt11char_traitsIcESaIcEEixEm(ptr noundef nonnull align 8 dereferenceable(32) %0, i64 noundef %1) #6 align 2 {
  %3 = alloca ptr, align 8
  %4 = alloca i64, align 8
  store ptr %0, ptr %3, align 8, !tbaa !52
  store i64 %1, ptr %4, align 8, !tbaa !63
  %5 = load ptr, ptr %3, align 8
  br label %6

6:                                                ; preds = %2
  br label %7

7:                                                ; preds = %6
  br label %8

8:                                                ; preds = %7
  %9 = call noundef ptr @_ZNKSt7__cxx1112basic_stringIcSt11char_traitsIcESaIcEE7_M_dataEv(ptr noundef nonnull align 8 dereferenceable(32) %5)
  %10 = load i64, ptr %4, align 8, !tbaa !63
  %11 = getelementptr inbounds nuw i8, ptr %9, i64 %10
  ret ptr %11
}

; Function Attrs: mustprogress nounwind uwtable
define hidden noundef zeroext i1 @_Z12isRepetitiveRKNSt7__cxx1112basic_stringIcSt11char_traitsIcESaIcEEE(ptr noundef nonnull align 8 dereferenceable(32) %0) #6 {
  %2 = alloca i1, align 1
  %3 = alloca ptr, align 8
  %4 = alloca i32, align 4
  %5 = alloca i32, align 4
  %6 = alloca i32, align 4
  %7 = alloca i32, align 4
  %8 = alloca i32, align 4
  %9 = alloca i32, align 4
  %10 = alloca i32, align 4
  store ptr %0, ptr %3, align 8, !tbaa !52
  call void @llvm.lifetime.start.p0(i64 4, ptr %4) #3
  store i32 0, ptr %4, align 4, !tbaa !4
  call void @llvm.lifetime.start.p0(i64 4, ptr %5) #3
  store i32 0, ptr %5, align 4, !tbaa !4
  call void @llvm.lifetime.start.p0(i64 4, ptr %6) #3
  store i32 0, ptr %6, align 4, !tbaa !4
  call void @llvm.lifetime.start.p0(i64 4, ptr %7) #3
  %11 = load ptr, ptr %3, align 8, !tbaa !52
  %12 = call noundef nonnull align 1 dereferenceable(1) ptr @_ZNKSt7__cxx1112basic_stringIcSt11char_traitsIcESaIcEEixEm(ptr noundef nonnull align 8 dereferenceable(32) %11, i64 noundef 0) #3
  %13 = load i8, ptr %12, align 1, !tbaa !14
  %14 = sext i8 %13 to i32
  store i32 %14, ptr %7, align 4, !tbaa !4
  call void @llvm.lifetime.start.p0(i64 4, ptr %8) #3
  %15 = load ptr, ptr %3, align 8, !tbaa !52
  %16 = load ptr, ptr %3, align 8, !tbaa !52
  %17 = call noundef i64 @_ZNKSt7__cxx1112basic_stringIcSt11char_traitsIcESaIcEE4sizeEv(ptr noundef nonnull align 8 dereferenceable(32) %16) #3
  %18 = trunc i64 %17 to i32
  %19 = sub nsw i32 %18, 1
  %20 = sext i32 %19 to i64
  %21 = call noundef nonnull align 1 dereferenceable(1) ptr @_ZNKSt7__cxx1112basic_stringIcSt11char_traitsIcESaIcEEixEm(ptr noundef nonnull align 8 dereferenceable(32) %15, i64 noundef %20) #3
  %22 = load i8, ptr %21, align 1, !tbaa !14
  %23 = sext i8 %22 to i32
  store i32 %23, ptr %8, align 4, !tbaa !4
  call void @llvm.lifetime.start.p0(i64 4, ptr %9) #3
  store i32 0, ptr %9, align 4, !tbaa !4
  br label %24

24:                                               ; preds = %83, %1
  %25 = load i32, ptr %9, align 4, !tbaa !4
  %26 = load ptr, ptr %3, align 8, !tbaa !52
  %27 = call noundef i64 @_ZNKSt7__cxx1112basic_stringIcSt11char_traitsIcESaIcEE4sizeEv(ptr noundef nonnull align 8 dereferenceable(32) %26) #3
  %28 = trunc i64 %27 to i32
  %29 = icmp slt i32 %25, %28
  br i1 %29, label %31, label %30

30:                                               ; preds = %24
  call void @llvm.lifetime.end.p0(i64 4, ptr %9) #3
  br label %86

31:                                               ; preds = %24
  %32 = load ptr, ptr %3, align 8, !tbaa !52
  %33 = load i32, ptr %9, align 4, !tbaa !4
  %34 = sext i32 %33 to i64
  %35 = call noundef nonnull align 1 dereferenceable(1) ptr @_ZNKSt7__cxx1112basic_stringIcSt11char_traitsIcESaIcEEixEm(ptr noundef nonnull align 8 dereferenceable(32) %32, i64 noundef %34) #3
  %36 = load i8, ptr %35, align 1, !tbaa !14
  %37 = sext i8 %36 to i32
  %38 = icmp eq i32 %37, 105
  br i1 %38, label %55, label %39

39:                                               ; preds = %31
  %40 = load ptr, ptr %3, align 8, !tbaa !52
  %41 = load i32, ptr %9, align 4, !tbaa !4
  %42 = sext i32 %41 to i64
  %43 = call noundef nonnull align 1 dereferenceable(1) ptr @_ZNKSt7__cxx1112basic_stringIcSt11char_traitsIcESaIcEEixEm(ptr noundef nonnull align 8 dereferenceable(32) %40, i64 noundef %42) #3
  %44 = load i8, ptr %43, align 1, !tbaa !14
  %45 = sext i8 %44 to i32
  %46 = icmp eq i32 %45, 108
  br i1 %46, label %55, label %47

47:                                               ; preds = %39
  %48 = load ptr, ptr %3, align 8, !tbaa !52
  %49 = load i32, ptr %9, align 4, !tbaa !4
  %50 = sext i32 %49 to i64
  %51 = call noundef nonnull align 1 dereferenceable(1) ptr @_ZNKSt7__cxx1112basic_stringIcSt11char_traitsIcESaIcEEixEm(ptr noundef nonnull align 8 dereferenceable(32) %48, i64 noundef %50) #3
  %52 = load i8, ptr %51, align 1, !tbaa !14
  %53 = sext i8 %52 to i32
  %54 = icmp eq i32 %53, 73
  br i1 %54, label %55, label %58

55:                                               ; preds = %47, %39, %31
  %56 = load i32, ptr %4, align 4, !tbaa !4
  %57 = add nsw i32 %56, 1
  store i32 %57, ptr %4, align 4, !tbaa !4
  br label %58

58:                                               ; preds = %55, %47
  %59 = load ptr, ptr %3, align 8, !tbaa !52
  %60 = load i32, ptr %9, align 4, !tbaa !4
  %61 = sext i32 %60 to i64
  %62 = call noundef nonnull align 1 dereferenceable(1) ptr @_ZNKSt7__cxx1112basic_stringIcSt11char_traitsIcESaIcEEixEm(ptr noundef nonnull align 8 dereferenceable(32) %59, i64 noundef %61) #3
  %63 = load i8, ptr %62, align 1, !tbaa !14
  %64 = sext i8 %63 to i32
  %65 = load i32, ptr %7, align 4, !tbaa !4
  %66 = icmp eq i32 %64, %65
  br i1 %66, label %67, label %70

67:                                               ; preds = %58
  %68 = load i32, ptr %5, align 4, !tbaa !4
  %69 = add nsw i32 %68, 1
  store i32 %69, ptr %5, align 4, !tbaa !4
  br label %70

70:                                               ; preds = %67, %58
  %71 = load ptr, ptr %3, align 8, !tbaa !52
  %72 = load i32, ptr %9, align 4, !tbaa !4
  %73 = sext i32 %72 to i64
  %74 = call noundef nonnull align 1 dereferenceable(1) ptr @_ZNKSt7__cxx1112basic_stringIcSt11char_traitsIcESaIcEEixEm(ptr noundef nonnull align 8 dereferenceable(32) %71, i64 noundef %73) #3
  %75 = load i8, ptr %74, align 1, !tbaa !14
  %76 = sext i8 %75 to i32
  %77 = load i32, ptr %8, align 4, !tbaa !4
  %78 = icmp eq i32 %76, %77
  br i1 %78, label %79, label %82

79:                                               ; preds = %70
  %80 = load i32, ptr %6, align 4, !tbaa !4
  %81 = add nsw i32 %80, 1
  store i32 %81, ptr %6, align 4, !tbaa !4
  br label %82

82:                                               ; preds = %79, %70
  br label %83

83:                                               ; preds = %82
  %84 = load i32, ptr %9, align 4, !tbaa !4
  %85 = add nsw i32 %84, 1
  store i32 %85, ptr %9, align 4, !tbaa !4
  br label %24, !llvm.loop !217

86:                                               ; preds = %30
  %87 = load i32, ptr %4, align 4, !tbaa !4
  %88 = load ptr, ptr %3, align 8, !tbaa !52
  %89 = call noundef i64 @_ZNKSt7__cxx1112basic_stringIcSt11char_traitsIcESaIcEE4sizeEv(ptr noundef nonnull align 8 dereferenceable(32) %88) #3
  %90 = trunc i64 %89 to i32
  %91 = add nsw i32 %90, 1
  %92 = sdiv i32 %91, 2
  %93 = icmp sgt i32 %87, %92
  br i1 %93, label %108, label %94

94:                                               ; preds = %86
  %95 = load i32, ptr %5, align 4, !tbaa !4
  %96 = load ptr, ptr %3, align 8, !tbaa !52
  %97 = call noundef i64 @_ZNKSt7__cxx1112basic_stringIcSt11char_traitsIcESaIcEE4sizeEv(ptr noundef nonnull align 8 dereferenceable(32) %96) #3
  %98 = trunc i64 %97 to i32
  %99 = icmp eq i32 %95, %98
  br i1 %99, label %108, label %100

100:                                              ; preds = %94
  %101 = load i32, ptr %6, align 4, !tbaa !4
  %102 = load ptr, ptr %3, align 8, !tbaa !52
  %103 = call noundef i64 @_ZNKSt7__cxx1112basic_stringIcSt11char_traitsIcESaIcEE4sizeEv(ptr noundef nonnull align 8 dereferenceable(32) %102) #3
  %104 = trunc i64 %103 to i32
  %105 = mul nsw i32 %104, 2
  %106 = sdiv i32 %105, 3
  %107 = icmp sgt i32 %101, %106
  br i1 %107, label %108, label %109

108:                                              ; preds = %100, %94, %86
  store i1 true, ptr %2, align 1
  store i32 1, ptr %10, align 4
  br label %110

109:                                              ; preds = %100
  store i1 false, ptr %2, align 1
  store i32 1, ptr %10, align 4
  br label %110

110:                                              ; preds = %109, %108
  call void @llvm.lifetime.end.p0(i64 4, ptr %8) #3
  call void @llvm.lifetime.end.p0(i64 4, ptr %7) #3
  call void @llvm.lifetime.end.p0(i64 4, ptr %6) #3
  call void @llvm.lifetime.end.p0(i64 4, ptr %5) #3
  call void @llvm.lifetime.end.p0(i64 4, ptr %4) #3
  %111 = load i1, ptr %2, align 1
  ret i1 %111
}