; Function Attrs: mustprogress nofree norecurse nosync nounwind willreturn memory(read, inaccessiblemem: none) uwtable
define hidden noundef zeroext i1 @_Z12isRepetitiveRKNSt7__cxx1112basic_stringIcSt11char_traitsIcESaIcEEE(ptr noundef nonnull readonly align 8 captures(none) dereferenceable(32) %0) local_unnamed_addr #9 {
  %2 = load ptr, ptr %0, align 8, !tbaa !13
  %3 = load i8, ptr %2, align 1, !tbaa !15
  %4 = getelementptr inbounds nuw i8, ptr %0, i64 8
  %5 = load i64, ptr %4, align 8, !tbaa !16
  %6 = shl i64 %5, 32
  %sext = add i64 %6, -4294967296
  %7 = ashr exact i64 %sext, 32
  %8 = getelementptr inbounds nuw i8, ptr %2, i64 %7
  %9 = load i8, ptr %8, align 1, !tbaa !15
  %10 = trunc i64 %5 to i32
  %11 = icmp sgt i32 %10, 0
  br i1 %11, label %.lr.ph.preheader, label %._crit_edge

.lr.ph.preheader:                                 ; preds = %1
  %wide.trip.count = and i64 %5, 2147483647
  br label %.lr.ph

._crit_edge:                                      ; preds = %20, %1
  %.031.lcssa = phi i32 [ 0, %1 ], [ %spec.select, %20 ]
  %.029.lcssa = phi i32 [ 0, %1 ], [ %.130, %20 ]
  %.028.lcssa = phi i32 [ 0, %1 ], [ %.1, %20 ]
  %12 = add nsw i32 %10, 1
  %13 = sdiv i32 %12, 2
  %14 = icmp sgt i32 %.028.lcssa, %13
  %15 = icmp eq i32 %.031.lcssa, %10
  %or.cond = select i1 %14, i1 true, i1 %15
  br i1 %or.cond, label %29, label %25

.lr.ph:                                           ; preds = %.lr.ph.preheader, %20
  %indvars.iv = phi i64 [ 0, %.lr.ph.preheader ], [ %indvars.iv.next, %20 ]
  %.02836 = phi i32 [ 0, %.lr.ph.preheader ], [ %.1, %20 ]
  %.02935 = phi i32 [ 0, %.lr.ph.preheader ], [ %.130, %20 ]
  %.03134 = phi i32 [ 0, %.lr.ph.preheader ], [ %spec.select, %20 ]
  %16 = getelementptr inbounds nuw i8, ptr %2, i64 %indvars.iv
  %17 = load i8, ptr %16, align 1, !tbaa !15
  switch i8 %17, label %20 [
    i8 105, label %18
    i8 108, label %18
    i8 73, label %18
  ]

18:                                               ; preds = %.lr.ph, %.lr.ph, %.lr.ph
  %19 = add nsw i32 %.02836, 1
  br label %20

20:                                               ; preds = %.lr.ph, %18
  %.1 = phi i32 [ %19, %18 ], [ %.02836, %.lr.ph ]
  %21 = icmp eq i8 %17, %3
  %22 = zext i1 %21 to i32
  %spec.select = add nuw nsw i32 %.03134, %22
  %23 = icmp eq i8 %17, %9
  %24 = zext i1 %23 to i32
  %.130 = add nuw nsw i32 %.02935, %24
  %indvars.iv.next = add nuw nsw i64 %indvars.iv, 1
  %exitcond.not = icmp eq i64 %indvars.iv.next, %wide.trip.count
  br i1 %exitcond.not, label %._crit_edge, label %.lr.ph, !llvm.loop !221

25:                                               ; preds = %._crit_edge
  %26 = shl nsw i32 %10, 1
  %27 = sdiv i32 %26, 3
  %28 = icmp sgt i32 %.029.lcssa, %27
  br label %29

29:                                               ; preds = %25, %._crit_edge
  %.027 = phi i1 [ true, %._crit_edge ], [ %28, %25 ]
  ret i1 %.027
}